target datalayout = "e-m:e-p270:32:32-p271:32:32-p272:64:64-i64:64-i128:128-f80:128-n8:16:32:64-S128"
target triple = "x86_64-pc-linux-gnu"

@.str.1 = private unnamed_addr constant [11 x i8] c"miscinit.c\00", align 1
@.str.42 = private unnamed_addr constant [29 x i8] c"could not open file \22%s\22: %m\00", align 1
@.str.49 = private unnamed_addr constant [8 x i8] c"18devel\00", align 1
@.str.50 = private unnamed_addr constant [14 x i8] c"%s/PG_VERSION\00", align 1
@.str.51 = private unnamed_addr constant [2 x i8] c"r\00", align 1
@.str.52 = private unnamed_addr constant [35 x i8] c"\22%s\22 is not a valid data directory\00", align 1
@.str.53 = private unnamed_addr constant [22 x i8] c"File \22%s\22 is missing.\00", align 1
@__func__.ValidatePgVersion = private unnamed_addr constant [18 x i8] c"ValidatePgVersion\00", align 1
@.str.54 = private unnamed_addr constant [5 x i8] c"%63s\00", align 1
@.str.55 = private unnamed_addr constant [39 x i8] c"File \22%s\22 does not contain valid data.\00", align 1
@.str.56 = private unnamed_addr constant [26 x i8] c"You might need to initdb.\00", align 1
@.str.57 = private unnamed_addr constant [44 x i8] c"database files are incompatible with server\00", align 1
@.str.58 = private unnamed_addr constant [107 x i8] c"The data directory was initialized by PostgreSQL version %s, which is not compatible with this version %s.\00", align 1

; Function Attrs: nounwind uwtable
define dso_local void @ValidatePgVersion(ptr noundef %0) #0 {
  %2 = alloca ptr, align 8
  %3 = alloca [1024 x i8], align 16
  %4 = alloca ptr, align 8
  %5 = alloca i32, align 4
  %6 = alloca i64, align 8
  %7 = alloca i64, align 8
  %8 = alloca ptr, align 8
  %9 = alloca [64 x i8], align 16
  %10 = alloca ptr, align 8
  store ptr %0, ptr %2, align 8
  call void @llvm.lifetime.start.p0(i64 1024, ptr %3) #12
  call void @llvm.lifetime.start.p0(i64 8, ptr %4) #12
  call void @llvm.lifetime.start.p0(i64 4, ptr %5) #12
  call void @llvm.lifetime.start.p0(i64 8, ptr %6) #12
  call void @llvm.lifetime.start.p0(i64 8, ptr %7) #12
  call void @llvm.lifetime.start.p0(i64 8, ptr %8) #12
  call void @llvm.lifetime.start.p0(i64 64, ptr %9) #12
  call void @llvm.lifetime.start.p0(i64 8, ptr %10) #12
  store ptr @.str.49, ptr %10, align 8
  %11 = load ptr, ptr %10, align 8
  %12 = call i64 @strtol(ptr noundef %11, ptr noundef %8, i32 noundef 10) #12
  store i64 %12, ptr %7, align 8
  %13 = getelementptr inbounds [1024 x i8], ptr %3, i64 0, i64 0
  %14 = load ptr, ptr %2, align 8
  %15 = call i32 (ptr, i64, ptr, ...) @pg_snprintf(ptr noundef %13, i64 noundef 1024, ptr noundef @.str.50, ptr noundef %14)
  %16 = getelementptr inbounds [1024 x i8], ptr %3, i64 0, i64 0
  %17 = call ptr @AllocateFile(ptr noundef %16, ptr noundef @.str.51)
  store ptr %17, ptr %4, align 8
  %18 = load ptr, ptr %4, align 8
  %19 = icmp ne ptr %18, null
  br i1 %19, label %53, label %20

20:                                               ; preds = %1
  %21 = call ptr @__errno_location() #14
  %22 = load i32, ptr %21, align 4
  %23 = icmp eq i32 %22, 2
  br i1 %23, label %24, label %39

24:                                               ; preds = %20
  br label %25

25:                                               ; preds = %24
  br i1 true, label %26, label %28

26:                                               ; preds = %25
  %27 = call zeroext i1 @errstart_cold(i32 noundef 22, ptr noundef null) #13
  br i1 %27, label %30, label %36

28:                                               ; preds = %25
  %29 = call zeroext i1 @errstart(i32 noundef 22, ptr noundef null)
  br i1 %29, label %30, label %36

30:                                               ; preds = %28, %26
  %31 = call i32 @errcode(i32 noundef 50856066)
  %32 = load ptr, ptr %2, align 8
  %33 = call i32 (ptr, ...) @errmsg(ptr noundef @.str.52, ptr noundef %32)
  %34 = getelementptr inbounds [1024 x i8], ptr %3, i64 0, i64 0
  %35 = call i32 (ptr, ...) @errdetail(ptr noundef @.str.53, ptr noundef %34)
  call void @errfinish(ptr noundef @.str.1, i32 noundef 1789, ptr noundef @__func__.ValidatePgVersion)
  br label %36

36:                                               ; preds = %30, %28, %26
  unreachable

37:                                               ; No predecessors!
  br label %38

38:                                               ; preds = %37
  br label %52

39:                                               ; preds = %20
  br label %40

40:                                               ; preds = %39
  br i1 true, label %41, label %43

41:                                               ; preds = %40
  %42 = call zeroext i1 @errstart_cold(i32 noundef 22, ptr noundef null) #13
  br i1 %42, label %45, label %49

43:                                               ; preds = %40
  %44 = call zeroext i1 @errstart(i32 noundef 22, ptr noundef null)
  br i1 %44, label %45, label %49

45:                                               ; preds = %43, %41
  %46 = call i32 @errcode_for_file_access()
  %47 = getelementptr inbounds [1024 x i8], ptr %3, i64 0, i64 0
  %48 = call i32 (ptr, ...) @errmsg(ptr noundef @.str.42, ptr noundef %47)
  call void @errfinish(ptr noundef @.str.1, i32 noundef 1793, ptr noundef @__func__.ValidatePgVersion)
  br label %49

49:                                               ; preds = %45, %43, %41
  unreachable

50:                                               ; No predecessors!
  br label %51

51:                                               ; preds = %50
  br label %52

52:                                               ; preds = %51, %38
  br label %53

53:                                               ; preds = %52, %1
  %54 = getelementptr inbounds [64 x i8], ptr %9, i64 0, i64 0
  store i8 0, ptr %54, align 16
  %55 = load ptr, ptr %4, align 8
  %56 = getelementptr inbounds [64 x i8], ptr %9, i64 0, i64 0
  %57 = call i32 (ptr, ptr, ...) @__isoc99_fscanf(ptr noundef %55, ptr noundef @.str.54, ptr noundef %56)
  store i32 %57, ptr %5, align 4
  %58 = getelementptr inbounds [64 x i8], ptr %9, i64 0, i64 0
  %59 = call i64 @strtol(ptr noundef %58, ptr noundef %8, i32 noundef 10) #12
  store i64 %59, ptr %6, align 8
  %60 = load i32, ptr %5, align 4
  %61 = icmp ne i32 %60, 1
  br i1 %61, label %66, label %62

62:                                               ; preds = %53
  %63 = load ptr, ptr %8, align 8
  %64 = getelementptr inbounds [64 x i8], ptr %9, i64 0, i64 0
  %65 = icmp eq ptr %63, %64
  br i1 %65, label %66, label %82

66:                                               ; preds = %62, %53
  br label %67

67:                                               ; preds = %66
  br i1 true, label %68, label %70

68:                                               ; preds = %67
  %69 = call zeroext i1 @errstart_cold(i32 noundef 22, ptr noundef null) #13
  br i1 %69, label %72, label %79

70:                                               ; preds = %67
  %71 = call zeroext i1 @errstart(i32 noundef 22, ptr noundef null)
  br i1 %71, label %72, label %79

72:                                               ; preds = %70, %68
  %73 = call i32 @errcode(i32 noundef 50856066)
  %74 = load ptr, ptr %2, align 8
  %75 = call i32 (ptr, ...) @errmsg(ptr noundef @.str.52, ptr noundef %74)
  %76 = getelementptr inbounds [1024 x i8], ptr %3, i64 0, i64 0
  %77 = call i32 (ptr, ...) @errdetail(ptr noundef @.str.55, ptr noundef %76)
  %78 = call i32 (ptr, ...) @errhint(ptr noundef @.str.56)
  call void @errfinish(ptr noundef @.str.1, i32 noundef 1807, ptr noundef @__func__.ValidatePgVersion)
  br label %79

79:                                               ; preds = %72, %70, %68
  unreachable

80:                                               ; No predecessors!
  br label %81

81:                                               ; preds = %80
  br label %82

82:                                               ; preds = %81, %62
  %83 = load ptr, ptr %4, align 8
  %84 = call i32 @FreeFile(ptr noundef %83)
  %85 = load i64, ptr %7, align 8
  %86 = load i64, ptr %6, align 8
  %87 = icmp ne i64 %85, %86
  br i1 %87, label %88, label %103

88:                                               ; preds = %82
  br label %89

89:                                               ; preds = %88
  br i1 true, label %90, label %92

90:                                               ; preds = %89
  %91 = call zeroext i1 @errstart_cold(i32 noundef 22, ptr noundef null) #13
  br i1 %91, label %94, label %100

92:                                               ; preds = %89
  %93 = call zeroext i1 @errstart(i32 noundef 22, ptr noundef null)
  br i1 %93, label %94, label %100

94:                                               ; preds = %92, %90
  %95 = call i32 @errcode(i32 noundef 50856066)
  %96 = call i32 (ptr, ...) @errmsg(ptr noundef @.str.57)
  %97 = getelementptr inbounds [64 x i8], ptr %9, i64 0, i64 0
  %98 = load ptr, ptr %10, align 8
  %99 = call i32 (ptr, ...) @errdetail(ptr noundef @.str.58, ptr noundef %97, ptr noundef %98)
  call void @errfinish(ptr noundef @.str.1, i32 noundef 1817, ptr noundef @__func__.ValidatePgVersion)
  br label %100

100:                                              ; preds = %94, %92, %90
  unreachable

101:                                              ; No predecessors!
  br label %102

102:                                              ; preds = %101
  br label %103

103:                                              ; preds = %102, %82
  call void @llvm.lifetime.end.p0(i64 8, ptr %10) #12
  call void @llvm.lifetime.end.p0(i64 64, ptr %9) #12
  call void @llvm.lifetime.end.p0(i64 8, ptr %8) #12
  call void @llvm.lifetime.end.p0(i64 8, ptr %7) #12
  call void @llvm.lifetime.end.p0(i64 8, ptr %6) #12
  call void @llvm.lifetime.end.p0(i64 4, ptr %5) #12
  call void @llvm.lifetime.end.p0(i64 8, ptr %4) #12
  call void @llvm.lifetime.end.p0(i64 1024, ptr %3) #12
  ret void
}