; Function Attrs: nounwind uwtable
define dso_local void @ValidatePgVersion(ptr noundef %0) local_unnamed_addr #0 {
  %2 = alloca [1024 x i8], align 16
  %3 = alloca ptr, align 8
  %4 = alloca [64 x i8], align 16
  call void @llvm.lifetime.start.p0(i64 1024, ptr nonnull %2) #22
  call void @llvm.lifetime.start.p0(i64 8, ptr nonnull %3) #22
  call void @llvm.lifetime.start.p0(i64 64, ptr nonnull %4) #22
  %5 = call i64 @strtol(ptr noundef nonnull @.str.49, ptr noundef nonnull %3, i32 noundef 10) #22
  %6 = call i32 (ptr, i64, ptr, ...) @pg_snprintf(ptr noundef nonnull %2, i64 noundef 1024, ptr noundef nonnull @.str.50, ptr noundef %0) #22
  %7 = call ptr @AllocateFile(ptr noundef nonnull %2, ptr noundef nonnull @.str.51) #22
  %.not = icmp eq ptr %7, null
  br i1 %.not, label %8, label %20

8:                                                ; preds = %1
  %9 = tail call ptr @__errno_location() #24
  %10 = load i32, ptr %9, align 4
  %11 = icmp eq i32 %10, 2
  %12 = call zeroext i1 @errstart_cold(i32 noundef 22, ptr noundef null) #23
  call void @llvm.assume(i1 %12)
  br i1 %11, label %13, label %17

13:                                               ; preds = %8
  %14 = call i32 @errcode(i32 noundef 50856066) #22
  %15 = call i32 (ptr, ...) @errmsg(ptr noundef nonnull @.str.52, ptr noundef %0) #22
  %16 = call i32 (ptr, ...) @errdetail(ptr noundef nonnull @.str.53, ptr noundef nonnull %2) #22
  call void @errfinish(ptr noundef nonnull @.str.1, i32 noundef 1789, ptr noundef nonnull @__func__.ValidatePgVersion) #22
  unreachable

17:                                               ; preds = %8
  %18 = call i32 @errcode_for_file_access() #22
  %19 = call i32 (ptr, ...) @errmsg(ptr noundef nonnull @.str.42, ptr noundef nonnull %2) #22
  call void @errfinish(ptr noundef nonnull @.str.1, i32 noundef 1793, ptr noundef nonnull @__func__.ValidatePgVersion) #22
  unreachable

20:                                               ; preds = %1
  store i8 0, ptr %4, align 16
  %21 = call i32 (ptr, ptr, ...) @__isoc99_fscanf(ptr noundef nonnull %7, ptr noundef nonnull @.str.54, ptr noundef nonnull %4) #22
  %22 = call i64 @strtol(ptr noundef nonnull %4, ptr noundef nonnull %3, i32 noundef 10) #22
  %23 = icmp ne i32 %21, 1
  %24 = load ptr, ptr %3, align 8
  %25 = icmp eq ptr %24, %4
  %or.cond = select i1 %23, i1 true, i1 %25
  br i1 %or.cond, label %26, label %32

26:                                               ; preds = %20
  %27 = call zeroext i1 @errstart_cold(i32 noundef 22, ptr noundef null) #23
  call void @llvm.assume(i1 %27)
  %28 = call i32 @errcode(i32 noundef 50856066) #22
  %29 = call i32 (ptr, ...) @errmsg(ptr noundef nonnull @.str.52, ptr noundef %0) #22
  %30 = call i32 (ptr, ...) @errdetail(ptr noundef nonnull @.str.55, ptr noundef nonnull %2) #22
  %31 = call i32 (ptr, ...) @errhint(ptr noundef nonnull @.str.56) #22
  call void @errfinish(ptr noundef nonnull @.str.1, i32 noundef 1807, ptr noundef nonnull @__func__.ValidatePgVersion) #22
  unreachable

32:                                               ; preds = %20
  %33 = call i32 @FreeFile(ptr noundef nonnull %7) #22
  %.not13 = icmp eq i64 %5, %22
  br i1 %.not13, label %39, label %34

34:                                               ; preds = %32
  %35 = call zeroext i1 @errstart_cold(i32 noundef 22, ptr noundef null) #23
  call void @llvm.assume(i1 %35)
  %36 = call i32 @errcode(i32 noundef 50856066) #22
  %37 = call i32 (ptr, ...) @errmsg(ptr noundef nonnull @.str.57) #22
  %38 = call i32 (ptr, ...) @errdetail(ptr noundef nonnull @.str.58, ptr noundef nonnull %4, ptr noundef nonnull @.str.49) #22
  call void @errfinish(ptr noundef nonnull @.str.1, i32 noundef 1817, ptr noundef nonnull @__func__.ValidatePgVersion) #22
  unreachable

39:                                               ; preds = %32
  call void @llvm.lifetime.end.p0(i64 64, ptr nonnull %4) #22
  call void @llvm.lifetime.end.p0(i64 8, ptr nonnull %3) #22
  call void @llvm.lifetime.end.p0(i64 1024, ptr nonnull %2) #22
  ret void
}